target datalayout = "e-m:e-p270:32:32-p271:32:32-p272:64:64-i64:64-i128:128-f80:128-n8:16:32:64-S128"
target triple = "x86_64-pc-linux-gnu"

%struct.FFPsyContext = type { ptr, ptr, ptr, ptr, i32, i32, ptr, ptr, i32, %struct.anon, ptr }
%struct.anon = type { i32, i32, i32 }
%struct.FFPsyChannelGroup = type { [20 x ptr], i8, [128 x i8] }

; Function Attrs: nounwind uwtable
define ptr @ff_psy_find_group(ptr noundef %0, i32 noundef %1) #4 {
  %3 = alloca ptr, align 8
  %4 = alloca i32, align 4
  %5 = alloca i32, align 4
  %6 = alloca i32, align 4
  store ptr %0, ptr %3, align 8, !tbaa !4
  store i32 %1, ptr %4, align 4, !tbaa !11
  call void @llvm.lifetime.start.p0(i64 4, ptr %5) #5
  store i32 0, ptr %5, align 4, !tbaa !11
  call void @llvm.lifetime.start.p0(i64 4, ptr %6) #5
  store i32 0, ptr %6, align 4, !tbaa !11
  br label %7

7:                                                ; preds = %11, %2
  %8 = load i32, ptr %6, align 4, !tbaa !11
  %9 = load i32, ptr %4, align 4, !tbaa !11
  %10 = icmp sle i32 %8, %9
  br i1 %10, label %11, label %24

11:                                               ; preds = %7
  %12 = load ptr, ptr %3, align 8, !tbaa !4
  %13 = getelementptr inbounds nuw %struct.FFPsyContext, ptr %12, i32 0, i32 3
  %14 = load ptr, ptr %13, align 8, !tbaa !43
  %15 = load i32, ptr %5, align 4, !tbaa !11
  %16 = add nsw i32 %15, 1
  store i32 %16, ptr %5, align 4, !tbaa !11
  %17 = sext i32 %15 to i64
  %18 = getelementptr inbounds %struct.FFPsyChannelGroup, ptr %14, i64 %17
  %19 = getelementptr inbounds nuw %struct.FFPsyChannelGroup, ptr %18, i32 0, i32 1
  %20 = load i8, ptr %19, align 8, !tbaa !49
  %21 = zext i8 %20 to i32
  %22 = load i32, ptr %6, align 4, !tbaa !11
  %23 = add nsw i32 %22, %21
  store i32 %23, ptr %6, align 4, !tbaa !11
  br label %7, !llvm.loop !60

24:                                               ; preds = %7
  %25 = load ptr, ptr %3, align 8, !tbaa !4
  %26 = getelementptr inbounds nuw %struct.FFPsyContext, ptr %25, i32 0, i32 3
  %27 = load ptr, ptr %26, align 8, !tbaa !43
  %28 = load i32, ptr %5, align 4, !tbaa !11
  %29 = sub nsw i32 %28, 1
  %30 = sext i32 %29 to i64
  %31 = getelementptr inbounds %struct.FFPsyChannelGroup, ptr %27, i64 %30
  call void @llvm.lifetime.end.p0(i64 4, ptr %6) #5
  call void @llvm.lifetime.end.p0(i64 4, ptr %5) #5
  ret ptr %31
}