; Function Attrs: nofree norecurse nosync nounwind memory(read, inaccessiblemem: none) uwtable
define ptr @ff_psy_find_group(ptr noundef readonly captures(none) %0, i32 noundef %1) local_unnamed_addr #3 {
  %.not7 = icmp slt i32 %1, 0
  %.phi.trans.insert = getelementptr inbounds nuw i8, ptr %0, i64 24
  %.pre = load ptr, ptr %.phi.trans.insert, align 8, !tbaa !36
  br i1 %.not7, label %._crit_edge, label %.lr.ph

.lr.ph:                                           ; preds = %2, %.lr.ph
  %indvars.iv = phi i64 [ %indvars.iv.next, %.lr.ph ], [ 0, %2 ]
  %.09 = phi i32 [ %6, %.lr.ph ], [ 0, %2 ]
  %indvars.iv.next = add nuw nsw i64 %indvars.iv, 1
  %3 = getelementptr inbounds nuw %struct.FFPsyChannelGroup, ptr %.pre, i64 %indvars.iv, i32 1
  %4 = load i8, ptr %3, align 8, !tbaa !42
  %5 = zext i8 %4 to i32
  %6 = add nuw nsw i32 %.09, %5
  %.not = icmp sgt i32 %6, %1
  br i1 %.not, label %._crit_edge.loopexit, label %.lr.ph, !llvm.loop !53

._crit_edge.loopexit:                             ; preds = %.lr.ph
  %7 = and i64 %indvars.iv.next, 4294967295
  br label %._crit_edge

._crit_edge:                                      ; preds = %2, %._crit_edge.loopexit
  %.06.lcssa = phi i64 [ %7, %._crit_edge.loopexit ], [ 0, %2 ]
  %8 = getelementptr %struct.FFPsyChannelGroup, ptr %.pre, i64 %.06.lcssa
  %9 = getelementptr i8, ptr %8, i64 -296
  ret ptr %9
}